target datalayout = "e-m:e-p270:32:32-p271:32:32-p272:64:64-i64:64-i128:128-f80:128-n8:16:32:64-S128"
target triple = "x86_64-pc-linux-gnu"

; Function Attrs: mustprogress nounwind uwtable
define noundef i32 @_ZNK11TransTableL18EffectOfBlockBoundEPKii(ptr noundef nonnull align 8 dereferenceable(664216) %0, ptr noundef %1, i32 noundef %2) #5 align 2 {
  %4 = alloca ptr, align 8
  %5 = alloca ptr, align 8
  %6 = alloca i32, align 4
  %7 = alloca i32, align 4
  %8 = alloca i32, align 4
  %9 = alloca i32, align 4
  store ptr %0, ptr %4, align 8
  store ptr %1, ptr %5, align 8
  store i32 %2, ptr %6, align 4
  store i32 0, ptr %7, align 4
  store i32 0, ptr %8, align 4
  store i32 1, ptr %9, align 4
  br label %10

10:                                               ; preds = %33, %3
  %11 = load i32, ptr %9, align 4
  %12 = icmp sle i32 %11, 125
  br i1 %12, label %13, label %36

13:                                               ; preds = %10
  %14 = load i32, ptr %9, align 4
  %15 = sub nsw i32 %14, 1
  %16 = load i32, ptr %6, align 4
  %17 = srem i32 %15, %16
  %18 = icmp eq i32 %17, 0
  br i1 %18, label %19, label %23

19:                                               ; preds = %13
  %20 = load i32, ptr %6, align 4
  %21 = load i32, ptr %8, align 4
  %22 = add nsw i32 %21, %20
  store i32 %22, ptr %8, align 4
  br label %23

23:                                               ; preds = %19, %13
  %24 = load ptr, ptr %5, align 8
  %25 = load i32, ptr %9, align 4
  %26 = sext i32 %25 to i64
  %27 = getelementptr inbounds i32, ptr %24, i64 %26
  %28 = load i32, ptr %27, align 4
  %29 = load i32, ptr %8, align 4
  %30 = mul nsw i32 %28, %29
  %31 = load i32, ptr %7, align 4
  %32 = add nsw i32 %31, %30
  store i32 %32, ptr %7, align 4
  br label %33

33:                                               ; preds = %23
  %34 = load i32, ptr %9, align 4
  %35 = add nsw i32 %34, 1
  store i32 %35, ptr %9, align 4
  br label %10, !llvm.loop !70

36:                                               ; preds = %10
  %37 = load i32, ptr %7, align 4
  ret i32 %37
}