; Function Attrs: mustprogress nofree norecurse nosync nounwind willreturn memory(argmem: read) uwtable
define noundef i32 @_ZNK11TransTableL18EffectOfBlockBoundEPKii(ptr nocapture noundef nonnull readnone align 8 dereferenceable(664216) %0, ptr nocapture noundef readonly %1, i32 noundef %2) local_unnamed_addr #18 align 2 {
  br label %4

4:                                                ; preds = %3, %4
  %indvars.iv = phi i64 [ 1, %3 ], [ %indvars.iv.next, %4 ]
  %.01013 = phi i32 [ 0, %3 ], [ %spec.select, %4 ]
  %.01112 = phi i32 [ 0, %3 ], [ %13, %4 ]
  %5 = trunc i64 %indvars.iv to i32
  %6 = add i32 %5, -1
  %7 = srem i32 %6, %2
  %8 = icmp eq i32 %7, 0
  %9 = select i1 %8, i32 %2, i32 0
  %spec.select = add nsw i32 %9, %.01013
  %10 = getelementptr inbounds i32, ptr %1, i64 %indvars.iv
  %11 = load i32, ptr %10, align 4
  %12 = mul nsw i32 %spec.select, %11
  %13 = add nsw i32 %12, %.01112
  %indvars.iv.next = add nuw nsw i64 %indvars.iv, 1
  %exitcond.not = icmp eq i64 %indvars.iv.next, 126
  br i1 %exitcond.not, label %14, label %4, !llvm.loop !94

14:                                               ; preds = %4
  ret i32 %13
}